Certificate:
    Data:
        Version: 3 (0x2)
        Serial Number: 16 (0x10)
    Signature Algorithm: sha1WithRSAEncryption
        Issuer: C=RU, ST=SPb, L=SaintPetersburg, O=Pigs, OU=DmitryArrakis, CN=arrakis/name=Dmitry/emailAddress=dmitry.budyak@gmail.com
        Validity
            Not Before: May 19 15:21:45 2015 GMT
            Not After : May 16 15:21:45 2025 GMT
        Subject: C=RU, ST=SPb, L=SaintPetersburg, O=Pigs, OU=DmitryArrakis, CN=ideapad/name=Dmitry/emailAddress=dmitry.budyak@gmail.com
        Subject Public Key Info:
            Public Key Algorithm: rsaEncryption
                Public-Key: (2048 bit)
                Modulus:
                    00:c2:53:42:09:aa:47:4c:e6:95:d9:27:c1:ac:17:
                    f5:b7:a2:81:2c:8c:67:ad:12:5f:d2:05:2d:53:13:
                    de:9f:b0:32:13:fe:17:b3:bd:74:78:28:ae:83:8a:
                    80:a7:4f:f0:17:6d:d8:39:02:c3:c4:da:c5:54:4c:
                    b8:6a:42:d3:9d:ff:57:50:56:b9:ba:a7:dc:a1:8c:
                    e6:9d:0a:a8:c7:ce:87:3a:fc:31:85:e6:33:a0:9e:
                    90:d0:d8:8d:c1:ae:eb:0f:40:78:4f:18:24:a9:db:
                    2d:04:d5:9c:19:89:e0:29:d7:7b:b7:b3:70:8d:c9:
                    e9:65:9f:9c:2c:78:e3:a8:02:a7:d4:bb:02:11:2e:
                    67:9d:c2:b5:d2:8d:52:88:0e:03:23:e7:87:7a:16:
                    9d:6b:0b:08:77:26:96:55:73:c3:6c:0c:31:56:85:
                    21:66:11:ad:4d:55:8c:dc:38:6e:ee:48:b0:40:12:
                    ad:50:bf:2e:1b:b8:49:31:96:ed:f4:74:54:85:12:
                    cc:2a:96:8c:b1:6a:23:c6:55:7a:70:74:4c:93:ad:
                    5e:81:f0:a2:bc:27:21:af:71:53:5c:cf:65:47:80:
                    04:12:77:c9:9a:d2:fe:fb:eb:1c:bc:5a:a6:51:d9:
                    d3:c0:60:1a:cd:ad:03:85:77:28:61:c2:99:49:92:
                    c0:35
                Exponent: 65537 (0x10001)
        X509v3 extensions:
            X509v3 Basic Constraints: 
                CA:FALSE
            Netscape Comment: 
                Easy-RSA Generated Certificate
            X509v3 Subject Key Identifier: 
                3A:BB:F2:0A:F2:5E:38:D8:64:0C:59:0B:28:A9:52:19:B8:C8:19:B3
            X509v3 Authority Key Identifier: 
                keyid:26:83:3C:35:DB:32:CF:D2:B4:53:22:EF:DA:C2:2E:9A:16:CA:63:CD
                DirName:/C=RU/ST=SPb/L=SaintPetersburg/O=Pigs/OU=DmitryArrakis/CN=arrakis/name=Dmitry/emailAddress=dmitry.budyak@gmail.com
                serial:AC:4F:96:1D:48:EC:07:20

            X509v3 Extended Key Usage: 
                TLS Web Client Authentication
            X509v3 Key Usage: 
                Digital Signature
    Signature Algorithm: sha1WithRSAEncryption
         89:27:ea:b5:d4:04:20:45:99:35:19:06:b5:f7:3c:fa:28:a8:
         a7:21:de:72:7b:1a:b5:5d:bb:c9:95:62:a3:0b:30:59:e6:64:
         bb:91:77:c2:1b:68:63:c4:0d:61:04:8f:e9:0e:27:83:33:3e:
         cc:82:9c:3c:8c:05:97:ce:b9:34:b4:04:39:a3:2c:e6:39:86:
         e2:ae:87:6a:49:49:0e:03:3b:8b:3e:f7:3a:e1:a5:22:ee:0b:
         d7:bc:4d:0a:18:e7:0d:e7:b5:ae:11:54:03:f3:ec:74:a3:fc:
         d4:fc:36:7e:90:e1:a8:8a:9c:48:6d:1e:61:0e:06:b0:70:88:
         56:d9:1d:bc:95:40:32:c0:71:b0:7c:3a:e4:b8:65:4f:b3:51:
         48:09:cf:39:49:bc:b1:11:0c:e2:3a:57:f6:58:1c:a5:7b:6d:
         27:5f:ba:38:2f:32:1b:f8:0c:15:c0:4a:74:63:5e:f4:4b:7e:
         4b:fb:38:79:26:c3:65:02:f7:97:07:ce:c5:8f:53:ab:e9:88:
         89:79:35:a4:60:2b:77:c1:22:c2:e3:e8:d9:a1:ad:15:f8:dd:
         2e:19:25:6a:f2:01:b1:ba:c8:f5:2e:a8:0b:94:d5:3e:d8:c7:
         88:1d:a8:e1:af:8d:34:a0:48:9c:0e:b5:ae:cb:8e:53:2f:65:
         aa:43:57:1a
-----BEGIN CERTIFICATE-----
MIIFKzCCBBOgAwIBAgIBEDANBgkqhkiG9w0BAQUFADCBpzELMAkGA1UEBhMCUlUx
DDAKBgNVBAgTA1NQYjEYMBYGA1UEBxMPU2FpbnRQZXRlcnNidXJnMQ0wCwYDVQQK
EwRQaWdzMRYwFAYDVQQLEw1EbWl0cnlBcnJha2lzMRAwDgYDVQQDEwdhcnJha2lz
MQ8wDQYDVQQpEwZEbWl0cnkxJjAkBgkqhkiG9w0BCQEWF2RtaXRyeS5idWR5YWtA
Z21haWwuY29tMB4XDTE1MDUxOTE1MjE0NVoXDTI1MDUxNjE1MjE0NVowgacxCzAJ
BgNVBAYTAlJVMQwwCgYDVQQIEwNTUGIxGDAWBgNVBAcTD1NhaW50UGV0ZXJzYnVy
ZzENMAsGA1UEChMEUGlnczEWMBQGA1UECxMNRG1pdHJ5QXJyYWtpczEQMA4GA1UE
AxMHaWRlYXBhZDEPMA0GA1UEKRMGRG1pdHJ5MSYwJAYJKoZIhvcNAQkBFhdkbWl0
cnkuYnVkeWFrQGdtYWlsLmNvbTCCASIwDQYJKoZIhvcNAQEBBQADggEPADCCAQoC
ggEBAMJTQgmqR0zmldknwawX9beigSyMZ60SX9IFLVMT3p+wMhP+F7O9dHgoroOK
gKdP8Bdt2DkCw8TaxVRMuGpC053/V1BWubqn3KGM5p0KqMfOhzr8MYXmM6CekNDY
jcGu6w9AeE8YJKnbLQTVnBmJ4CnXe7ezcI3J6WWfnCx446gCp9S7AhEuZ53CtdKN
UogOAyPnh3oWnWsLCHcmllVzw2wMMVaFIWYRrU1VjNw4bu5IsEASrVC/Lhu4STGW
7fR0VIUSzCqWjLFqI8ZVenB0TJOtXoHworwnIa9xU1zPZUeABBJ3yZrS/vvrHLxa
plHZ08BgGs2tA4V3KGHCmUmSwDUCAwEAAaOCAV4wggFaMAkGA1UdEwQCMAAwLQYJ
YIZIAYb4QgENBCAWHkVhc3ktUlNBIEdlbmVyYXRlZCBDZXJ0aWZpY2F0ZTAdBgNV
HQ4EFgQUOrvyCvJeONhkDFkLKKlSGbjIGbMwgdwGA1UdIwSB1DCB0YAUJoM8Ndsy
z9K0UyLv2sIumhbKY82hga2kgaowgacxCzAJBgNVBAYTAlJVMQwwCgYDVQQIEwNT
UGIxGDAWBgNVBAcTD1NhaW50UGV0ZXJzYnVyZzENMAsGA1UEChMEUGlnczEWMBQG
A1UECxMNRG1pdHJ5QXJyYWtpczEQMA4GA1UEAxMHYXJyYWtpczEPMA0GA1UEKRMG
RG1pdHJ5MSYwJAYJKoZIhvcNAQkBFhdkbWl0cnkuYnVkeWFrQGdtYWlsLmNvbYIJ
AKxPlh1I7AcgMBMGA1UdJQQMMAoGCCsGAQUFBwMCMAsGA1UdDwQEAwIHgDANBgkq
hkiG9w0BAQUFAAOCAQEAiSfqtdQEIEWZNRkGtfc8+iiopyHecnsatV27yZViowsw
WeZku5F3whtoY8QNYQSP6Q4ngzM+zIKcPIwFl865NLQEOaMs5jmG4q6HaklJDgM7
iz73OuGlIu4L17xNChjnDee1rhFUA/PsdKP81Pw2fpDhqIqcSG0eYQ4GsHCIVtkd
vJVAMsBxsHw65LhlT7NRSAnPOUm8sREM4jpX9lgcpXttJ1+6OC8yG/gMFcBKdGNe
9Et+S/s4eSbDZQL3lwfOxY9Tq+mIiXk1pGArd8EiwuPo2aGtFfjdLhklavIBsbrI
9S6oC5TVPtjHiB2o4a+NNKBInA61rsuOUy9lqkNXGg==
-----END CERTIFICATE-----
